; Function Attrs: inlinehint mustprogress nofree norecurse nosync nounwind willreturn memory(read, argmem: readwrite, inaccessiblemem: none) uwtable
define internal fastcc i32 @get_bits_long(ptr noundef captures(none) %0) unnamed_addr #10 {
  %2 = getelementptr inbounds nuw i8, ptr %0, i64 16
  %3 = load i32, ptr %2, align 8, !tbaa !61
  %4 = getelementptr inbounds nuw i8, ptr %0, i64 24
  %5 = load i32, ptr %4, align 8, !tbaa !59
  %6 = load ptr, ptr %0, align 8, !tbaa !57
  %7 = lshr i32 %3, 3
  %8 = zext nneg i32 %7 to i64
  %9 = getelementptr inbounds nuw i8, ptr %6, i64 %8
  %10 = load i32, ptr %9, align 1, !tbaa !67
  %11 = tail call i32 @llvm.bswap.i32(i32 %10)
  %12 = and i32 %3, 7
  %13 = shl i32 %11, %12
  %14 = and i32 %13, -65536
  %15 = add i32 %3, 16
  %16 = tail call i32 @llvm.umin.i32(i32 %5, i32 %15)
  store i32 %16, ptr %2, align 8, !tbaa !61
  %17 = lshr i32 %16, 3
  %18 = zext nneg i32 %17 to i64
  %19 = getelementptr inbounds nuw i8, ptr %6, i64 %18
  %20 = load i32, ptr %19, align 1, !tbaa !67
  %21 = tail call i32 @llvm.bswap.i32(i32 %20)
  %22 = and i32 %16, 7
  %23 = shl i32 %21, %22
  %24 = lshr i32 %23, 16
  %25 = add i32 %16, 16
  %26 = tail call i32 @llvm.umin.i32(i32 %5, i32 %25)
  store i32 %26, ptr %2, align 8, !tbaa !61
  %27 = or disjoint i32 %24, %14
  ret i32 %27
}